; Function Attrs: mustprogress nounwind uwtable
define void @_ZN4LIEF5MachO18ChainedBindingInfo5clearEv(ptr nocapture noundef nonnull align 8 dereferenceable(88) %0) local_unnamed_addr #5 align 2 {
  %2 = getelementptr inbounds i8, ptr %0, i64 76
  %3 = load i32, ptr %2, align 4
  switch i32 %3, label %28 [
    i32 2, label %4
    i32 1, label %8
    i32 3, label %12
    i32 4, label %16
    i32 6, label %20
    i32 5, label %24
  ]

4:                                                ; preds = %1
  %5 = getelementptr inbounds i8, ptr %0, i64 80
  %6 = load ptr, ptr %5, align 8
  %7 = icmp eq ptr %6, null
  br i1 %7, label %28, label %.sink.split

8:                                                ; preds = %1
  %9 = getelementptr inbounds i8, ptr %0, i64 80
  %10 = load ptr, ptr %9, align 8
  %11 = icmp eq ptr %10, null
  br i1 %11, label %28, label %.sink.split

12:                                               ; preds = %1
  %13 = getelementptr inbounds i8, ptr %0, i64 80
  %14 = load ptr, ptr %13, align 8
  %15 = icmp eq ptr %14, null
  br i1 %15, label %28, label %.sink.split

16:                                               ; preds = %1
  %17 = getelementptr inbounds i8, ptr %0, i64 80
  %18 = load ptr, ptr %17, align 8
  %19 = icmp eq ptr %18, null
  br i1 %19, label %28, label %.sink.split

20:                                               ; preds = %1
  %21 = getelementptr inbounds i8, ptr %0, i64 80
  %22 = load ptr, ptr %21, align 8
  %23 = icmp eq ptr %22, null
  br i1 %23, label %28, label %.sink.split

24:                                               ; preds = %1
  %25 = getelementptr inbounds i8, ptr %0, i64 80
  %26 = load ptr, ptr %25, align 8
  %27 = icmp eq ptr %26, null
  br i1 %27, label %28, label %.sink.split

.sink.split:                                      ; preds = %24, %20, %16, %12, %8, %4
  %.sink = phi ptr [ %6, %4 ], [ %10, %8 ], [ %14, %12 ], [ %18, %16 ], [ %22, %20 ], [ %26, %24 ]
  tail call void @_ZdlPv(ptr noundef nonnull %.sink) #12
  br label %28

28:                                               ; preds = %.sink.split, %24, %20, %16, %12, %8, %4, %1
  store i32 0, ptr %2, align 4
  ret void
}